target datalayout = "e-m:e-p270:32:32-p271:32:32-p272:64:64-i64:64-i128:128-f80:128-n8:16:32:64-S128"
target triple = "x86_64-pc-linux-gnu"

%"class.ade::Handle" = type { %"class.std::weak_ptr" }
%"class.std::weak_ptr" = type { %"class.std::__weak_ptr" }
%"class.std::__weak_ptr" = type { ptr, %"class.std::__weak_count" }
%"class.std::__weak_count" = type { ptr }
%"struct.cv::GMatDesc" = type { i32, i32, %"class.cv::Size_", i8, %"class.std::vector" }
%"class.cv::Size_" = type { i32, i32 }
%"class.std::vector" = type { %"struct.std::_Vector_base" }
%"struct.std::_Vector_base" = type { %"struct.std::_Vector_base<int, std::allocator<int>>::_Vector_impl" }
%"struct.std::_Vector_base<int, std::allocator<int>>::_Vector_impl" = type { %"struct.std::_Vector_base<int, std::allocator<int>>::_Vector_impl_data" }
%"struct.std::_Vector_base<int, std::allocator<int>>::_Vector_impl_data" = type { ptr, ptr, ptr }
%"class.std::__cxx11::basic_string" = type { %"struct.std::__cxx11::basic_string<char>::_Alloc_hider", i64, %union.anon }
%"struct.std::__cxx11::basic_string<char>::_Alloc_hider" = type { ptr }
%union.anon = type { i64, [8 x i8] }
%"struct.cv::gimpl::FluidAgent" = type { ptr, %"class.cv::GFluidKernel", %"class.ade::Handle", %"class.std::__cxx11::basic_string", %"class.std::vector", %"class.std::vector", %"class.std::vector.16", %"class.std::vector.21", %"class.std::vector.26", i32, i32 }
%"class.cv::GFluidKernel" = type { i32, i32, i8, %"class.std::function", %"class.std::function.3", %"class.std::function.5", %"class.std::function.7", %"class.std::function.10" }
%"class.std::function" = type { %"class.std::_Function_base", ptr }
%"class.std::_Function_base" = type { %"union.std::_Any_data", ptr }
%"union.std::_Any_data" = type { %"union.std::_Nocopy_types" }
%"union.std::_Nocopy_types" = type { { i64, i64 } }
%"class.std::function.3" = type { %"class.std::_Function_base", ptr }
%"class.std::function.5" = type { %"class.std::_Function_base", ptr }
%"class.std::function.7" = type { %"class.std::_Function_base", ptr }
%"class.std::function.10" = type { %"class.std::_Function_base", ptr }
%"class.std::vector.16" = type { %"struct.std::_Vector_base.17" }
%"struct.std::_Vector_base.17" = type { %"struct.std::_Vector_base<cv::GArg, std::allocator<cv::GArg>>::_Vector_impl" }
%"struct.std::_Vector_base<cv::GArg, std::allocator<cv::GArg>>::_Vector_impl" = type { %"struct.std::_Vector_base<cv::GArg, std::allocator<cv::GArg>>::_Vector_impl_data" }
%"struct.std::_Vector_base<cv::GArg, std::allocator<cv::GArg>>::_Vector_impl_data" = type { ptr, ptr, ptr }
%"class.std::vector.21" = type { %"struct.std::_Vector_base.22" }
%"struct.std::_Vector_base.22" = type { %"struct.std::_Vector_base<cv::gapi::fluid::View, std::allocator<cv::gapi::fluid::View>>::_Vector_impl" }
%"struct.std::_Vector_base<cv::gapi::fluid::View, std::allocator<cv::gapi::fluid::View>>::_Vector_impl" = type { %"struct.std::_Vector_base<cv::gapi::fluid::View, std::allocator<cv::gapi::fluid::View>>::_Vector_impl_data" }
%"struct.std::_Vector_base<cv::gapi::fluid::View, std::allocator<cv::gapi::fluid::View>>::_Vector_impl_data" = type { ptr, ptr, ptr }
%"class.std::vector.26" = type { %"struct.std::_Vector_base.27" }
%"struct.std::_Vector_base.27" = type { %"struct.std::_Vector_base<cv::gapi::fluid::Buffer *, std::allocator<cv::gapi::fluid::Buffer *>>::_Vector_impl" }
%"struct.std::_Vector_base<cv::gapi::fluid::Buffer *, std::allocator<cv::gapi::fluid::Buffer *>>::_Vector_impl" = type { %"struct.std::_Vector_base<cv::gapi::fluid::Buffer *, std::allocator<cv::gapi::fluid::Buffer *>>::_Vector_impl_data" }
%"struct.std::_Vector_base<cv::gapi::fluid::Buffer *, std::allocator<cv::gapi::fluid::Buffer *>>::_Vector_impl_data" = type { ptr, ptr, ptr }
%"class.cv::gapi::fluid::View" = type { %"class.std::unique_ptr.124", ptr }
%"class.std::unique_ptr.124" = type { %"struct.std::__uniq_ptr_data.125" }
%"struct.std::__uniq_ptr_data.125" = type { %"class.std::__uniq_ptr_impl.126" }
%"class.std::__uniq_ptr_impl.126" = type { %"class.std::tuple.127" }
%"class.std::tuple.127" = type { %"struct.std::_Tuple_impl.128" }
%"struct.std::_Tuple_impl.128" = type { %"struct.std::_Head_base.131" }
%"struct.std::_Head_base.131" = type { ptr }
%"struct.cv::gimpl::FluidMapper" = type <{ ptr, double, i32, [4 x i8] }>
%"struct.cv::gimpl::FluidUpscaleMapper" = type { %"struct.cv::gimpl::FluidMapper.base", i32 }
%"struct.cv::gimpl::FluidMapper.base" = type <{ ptr, double, i32 }>
%"struct.cv::gimpl::FluidResizeAgent" = type { %"struct.cv::gimpl::FluidAgent", %"class.std::unique_ptr.139" }
%"class.std::unique_ptr.139" = type { %"struct.std::__uniq_ptr_data.140" }
%"struct.std::__uniq_ptr_data.140" = type { %"class.std::__uniq_ptr_impl.141" }
%"class.std::__uniq_ptr_impl.141" = type { %"class.std::tuple.142" }
%"class.std::tuple.142" = type { %"struct.std::_Tuple_impl.143" }
%"struct.std::_Tuple_impl.143" = type { %"struct.std::_Head_base.146" }
%"struct.std::_Head_base.146" = type { ptr }
%"struct.cv::gapi::fluid::View::Cache" = type <{ %"class.std::vector.132", %"struct.cv::GMatDesc", i32, [4 x i8] }>
%"class.std::vector.132" = type { %"struct.std::_Vector_base.133" }
%"struct.std::_Vector_base.133" = type { %"struct.std::_Vector_base<const unsigned char *, std::allocator<const unsigned char *>>::_Vector_impl" }
%"struct.std::_Vector_base<const unsigned char *, std::allocator<const unsigned char *>>::_Vector_impl" = type { %"struct.std::_Vector_base<const unsigned char *, std::allocator<const unsigned char *>>::_Vector_impl_data" }
%"struct.std::_Vector_base<const unsigned char *, std::allocator<const unsigned char *>>::_Vector_impl_data" = type { ptr, ptr, ptr }

@_ZTVN2cv5gimpl11FluidMapperE = linkonce_odr hidden unnamed_addr constant { [6 x ptr] } { [6 x ptr] [ptr null, ptr @_ZTIN2cv5gimpl11FluidMapperE, ptr @_ZN2cv5gimpl11FluidMapperD2Ev, ptr @_ZN2cv5gimpl11FluidMapperD0Ev, ptr @__cxa_pure_virtual, ptr @__cxa_pure_virtual] }, comdat, align 8

; Function Attrs: mustprogress nounwind uwtable
define linkonce_odr hidden noundef nonnull align 1 dereferenceable(1) ptr @_ZNSt10_Head_baseILm1ESt14default_deleteIN2cv5gimpl11FluidMapperEELb1EE7_M_headERS5_(ptr noundef nonnull align 1 dereferenceable(1) %0) #7 comdat align 2 {
  %2 = alloca ptr, align 8
  store ptr %0, ptr %2, align 8, !tbaa !1442
  %3 = load ptr, ptr %2, align 8, !tbaa !1442
  ret ptr %3
}

; Function Attrs: mustprogress nounwind uwtable
define linkonce_odr hidden noundef nonnull align 8 dereferenceable(8) ptr @_ZNSt10_Head_baseILm0EPN2cv5gimpl11FluidMapperELb0EE7_M_headERS4_(ptr noundef nonnull align 8 dereferenceable(8) %0) #7 comdat align 2 {
  %2 = alloca ptr, align 8
  store ptr %0, ptr %2, align 8, !tbaa !1438
  %3 = load ptr, ptr %2, align 8, !tbaa !1438
  %4 = getelementptr inbounds nuw %"struct.std::_Head_base.146", ptr %3, i32 0, i32 0
  ret ptr %4
}

; Function Attrs: mustprogress nounwind uwtable
define linkonce_odr hidden noundef nonnull align 1 dereferenceable(1) ptr @_ZNSt11_Tuple_implILm1EJSt14default_deleteIN2cv5gimpl11FluidMapperEEEE7_M_headERS5_(ptr noundef nonnull align 1 dereferenceable(1) %0) #7 comdat align 2 {
  %2 = alloca ptr, align 8
  store ptr %0, ptr %2, align 8, !tbaa !1436
  %3 = load ptr, ptr %2, align 8, !tbaa !1436
  %4 = call noundef nonnull align 1 dereferenceable(1) ptr @_ZNSt10_Head_baseILm1ESt14default_deleteIN2cv5gimpl11FluidMapperEELb1EE7_M_headERS5_(ptr noundef nonnull align 1 dereferenceable(1) %3) #3
  ret ptr %4
}

; Function Attrs: mustprogress nounwind uwtable
define linkonce_odr hidden noundef nonnull align 8 dereferenceable(8) ptr @_ZNSt11_Tuple_implILm0EJPN2cv5gimpl11FluidMapperESt14default_deleteIS2_EEE7_M_headERS6_(ptr noundef nonnull align 8 dereferenceable(8) %0) #7 comdat align 2 {
  %2 = alloca ptr, align 8
  store ptr %0, ptr %2, align 8, !tbaa !1434
  %3 = load ptr, ptr %2, align 8, !tbaa !1434
  %4 = call noundef nonnull align 8 dereferenceable(8) ptr @_ZNSt10_Head_baseILm0EPN2cv5gimpl11FluidMapperELb0EE7_M_headERS4_(ptr noundef nonnull align 8 dereferenceable(8) %3) #3
  ret ptr %4
}

; Function Attrs: mustprogress nounwind uwtable
define linkonce_odr hidden noundef nonnull align 1 dereferenceable(1) ptr @_ZSt12__get_helperILm1ESt14default_deleteIN2cv5gimpl11FluidMapperEEJEERT0_RSt11_Tuple_implIXT_EJS5_DpT1_EE(ptr noundef nonnull align 1 dereferenceable(1) %0) #7 comdat {
  %2 = alloca ptr, align 8
  store ptr %0, ptr %2, align 8, !tbaa !1436
  %3 = load ptr, ptr %2, align 8, !tbaa !1436
  %4 = call noundef nonnull align 1 dereferenceable(1) ptr @_ZNSt11_Tuple_implILm1EJSt14default_deleteIN2cv5gimpl11FluidMapperEEEE7_M_headERS5_(ptr noundef nonnull align 1 dereferenceable(1) %3) #3
  ret ptr %4
}

; Function Attrs: mustprogress nounwind uwtable
define linkonce_odr hidden noundef nonnull align 8 dereferenceable(8) ptr @_ZSt12__get_helperILm0EPN2cv5gimpl11FluidMapperEJSt14default_deleteIS2_EEERT0_RSt11_Tuple_implIXT_EJS6_DpT1_EE(ptr noundef nonnull align 8 dereferenceable(8) %0) #7 comdat {
  %2 = alloca ptr, align 8
  store ptr %0, ptr %2, align 8, !tbaa !1434
  %3 = load ptr, ptr %2, align 8, !tbaa !1434
  %4 = call noundef nonnull align 8 dereferenceable(8) ptr @_ZNSt11_Tuple_implILm0EJPN2cv5gimpl11FluidMapperESt14default_deleteIS2_EEE7_M_headERS6_(ptr noundef nonnull align 8 dereferenceable(8) %3) #3
  ret ptr %4
}

; Function Attrs: mustprogress nounwind uwtable
define linkonce_odr hidden noundef nonnull align 1 dereferenceable(1) ptr @_ZSt3getILm1EJPN2cv5gimpl11FluidMapperESt14default_deleteIS2_EEERNSt13tuple_elementIXT_ESt5tupleIJDpT0_EEE4typeERSA_(ptr noundef nonnull align 8 dereferenceable(8) %0) #7 comdat {
  %2 = alloca ptr, align 8
  store ptr %0, ptr %2, align 8, !tbaa !1432
  %3 = load ptr, ptr %2, align 8, !tbaa !1432
  %4 = call noundef nonnull align 1 dereferenceable(1) ptr @_ZSt12__get_helperILm1ESt14default_deleteIN2cv5gimpl11FluidMapperEEJEERT0_RSt11_Tuple_implIXT_EJS5_DpT1_EE(ptr noundef nonnull align 1 dereferenceable(1) %3) #3
  ret ptr %4
}

; Function Attrs: mustprogress nounwind uwtable
define linkonce_odr hidden noundef nonnull align 8 dereferenceable(8) ptr @_ZSt3getILm0EJPN2cv5gimpl11FluidMapperESt14default_deleteIS2_EEERNSt13tuple_elementIXT_ESt5tupleIJDpT0_EEE4typeERSA_(ptr noundef nonnull align 8 dereferenceable(8) %0) #7 comdat {
  %2 = alloca ptr, align 8
  store ptr %0, ptr %2, align 8, !tbaa !1432
  %3 = load ptr, ptr %2, align 8, !tbaa !1432
  %4 = call noundef nonnull align 8 dereferenceable(8) ptr @_ZSt12__get_helperILm0EPN2cv5gimpl11FluidMapperEJSt14default_deleteIS2_EEERT0_RSt11_Tuple_implIXT_EJS6_DpT1_EE(ptr noundef nonnull align 8 dereferenceable(8) %3) #3
  ret ptr %4
}

; Function Attrs: mustprogress nounwind uwtable
define linkonce_odr hidden void @_ZNKSt14default_deleteIN2cv5gimpl11FluidMapperEEclEPS2_(ptr noundef nonnull align 1 dereferenceable(1) %0, ptr noundef %1) #7 comdat align 2 {
  %3 = alloca ptr, align 8
  %4 = alloca ptr, align 8
  store ptr %0, ptr %3, align 8, !tbaa !1900
  store ptr %1, ptr %4, align 8, !tbaa !215
  %5 = load ptr, ptr %4, align 8, !tbaa !215
  %6 = icmp eq ptr %5, null
  br i1 %6, label %11, label %7

7:                                                ; preds = %2
  %8 = load ptr, ptr %5, align 8, !tbaa !25
  %9 = getelementptr inbounds ptr, ptr %8, i64 1
  %10 = load ptr, ptr %9, align 8
  call void %10(ptr noundef nonnull align 8 dereferenceable(20) %5) #3
  br label %11

11:                                               ; preds = %7, %2
  ret void
}

; Function Attrs: mustprogress nounwind uwtable
define linkonce_odr hidden noundef nonnull align 1 dereferenceable(1) ptr @_ZNSt15__uniq_ptr_implIN2cv5gimpl11FluidMapperESt14default_deleteIS2_EE10_M_deleterEv(ptr noundef nonnull align 8 dereferenceable(8) %0) #7 comdat align 2 {
  %2 = alloca ptr, align 8
  store ptr %0, ptr %2, align 8, !tbaa !1430
  %3 = load ptr, ptr %2, align 8
  %4 = getelementptr inbounds nuw %"class.std::__uniq_ptr_impl.141", ptr %3, i32 0, i32 0
  %5 = call noundef nonnull align 1 dereferenceable(1) ptr @_ZSt3getILm1EJPN2cv5gimpl11FluidMapperESt14default_deleteIS2_EEERNSt13tuple_elementIXT_ESt5tupleIJDpT0_EEE4typeERSA_(ptr noundef nonnull align 8 dereferenceable(8) %4) #3
  ret ptr %5
}

; Function Attrs: mustprogress nounwind uwtable
define linkonce_odr hidden noundef nonnull align 8 dereferenceable(8) ptr @_ZNSt15__uniq_ptr_implIN2cv5gimpl11FluidMapperESt14default_deleteIS2_EE6_M_ptrEv(ptr noundef nonnull align 8 dereferenceable(8) %0) #7 comdat align 2 {
  %2 = alloca ptr, align 8
  store ptr %0, ptr %2, align 8, !tbaa !1430
  %3 = load ptr, ptr %2, align 8
  %4 = getelementptr inbounds nuw %"class.std::__uniq_ptr_impl.141", ptr %3, i32 0, i32 0
  %5 = call noundef nonnull align 8 dereferenceable(8) ptr @_ZSt3getILm0EJPN2cv5gimpl11FluidMapperESt14default_deleteIS2_EEERNSt13tuple_elementIXT_ESt5tupleIJDpT0_EEE4typeERSA_(ptr noundef nonnull align 8 dereferenceable(8) %4) #3
  ret ptr %5
}

; Function Attrs: mustprogress nounwind uwtable
define linkonce_odr hidden void @_ZNSt15__uniq_ptr_implIN2cv5gimpl11FluidMapperESt14default_deleteIS2_EE5resetEPS2_(ptr noundef nonnull align 8 dereferenceable(8) %0, ptr noundef %1) #7 comdat align 2 {
  %3 = alloca ptr, align 8
  %4 = alloca ptr, align 8
  %5 = alloca ptr, align 8
  store ptr %0, ptr %3, align 8, !tbaa !1430
  store ptr %1, ptr %4, align 8, !tbaa !215
  %6 = load ptr, ptr %3, align 8
  call void @llvm.lifetime.start.p0(i64 8, ptr %5) #3
  %7 = call noundef nonnull align 8 dereferenceable(8) ptr @_ZNSt15__uniq_ptr_implIN2cv5gimpl11FluidMapperESt14default_deleteIS2_EE6_M_ptrEv(ptr noundef nonnull align 8 dereferenceable(8) %6) #3
  %8 = load ptr, ptr %7, align 8, !tbaa !215
  store ptr %8, ptr %5, align 8, !tbaa !215
  %9 = load ptr, ptr %4, align 8, !tbaa !215
  %10 = call noundef nonnull align 8 dereferenceable(8) ptr @_ZNSt15__uniq_ptr_implIN2cv5gimpl11FluidMapperESt14default_deleteIS2_EE6_M_ptrEv(ptr noundef nonnull align 8 dereferenceable(8) %6) #3
  store ptr %9, ptr %10, align 8, !tbaa !215
  %11 = load ptr, ptr %5, align 8, !tbaa !215
  %12 = icmp ne ptr %11, null
  br i1 %12, label %13, label %16

13:                                               ; preds = %2
  %14 = call noundef nonnull align 1 dereferenceable(1) ptr @_ZNSt15__uniq_ptr_implIN2cv5gimpl11FluidMapperESt14default_deleteIS2_EE10_M_deleterEv(ptr noundef nonnull align 8 dereferenceable(8) %6) #3
  %15 = load ptr, ptr %5, align 8, !tbaa !215
  call void @_ZNKSt14default_deleteIN2cv5gimpl11FluidMapperEEclEPS2_(ptr noundef nonnull align 1 dereferenceable(1) %14, ptr noundef %15)
  br label %16

16:                                               ; preds = %13, %2
  call void @llvm.lifetime.end.p0(i64 8, ptr %5) #3
  ret void
}

; Function Attrs: mustprogress nounwind uwtable
define linkonce_odr hidden void @_ZN2cv5gimpl11FluidMapperC2Edi(ptr noundef nonnull align 8 dereferenceable(20) %0, double noundef %1, i32 noundef %2) unnamed_addr #7 comdat align 2 {
  %4 = alloca ptr, align 8
  %5 = alloca double, align 8
  %6 = alloca i32, align 4
  store ptr %0, ptr %4, align 8, !tbaa !215
  store double %1, ptr %5, align 8, !tbaa !170
  store i32 %2, ptr %6, align 4, !tbaa !146
  %7 = load ptr, ptr %4, align 8
  store ptr getelementptr inbounds inrange(-16, 32) ({ [6 x ptr] }, ptr @_ZTVN2cv5gimpl11FluidMapperE, i32 0, i32 0, i32 2), ptr %7, align 8, !tbaa !25
  %8 = getelementptr inbounds nuw %"struct.cv::gimpl::FluidMapper", ptr %7, i32 0, i32 1
  %9 = load double, ptr %5, align 8, !tbaa !170
  store double %9, ptr %8, align 8, !tbaa !167
  %10 = getelementptr inbounds nuw %"struct.cv::gimpl::FluidMapper", ptr %7, i32 0, i32 2
  %11 = load i32, ptr %6, align 4, !tbaa !146
  store i32 %11, ptr %10, align 8, !tbaa !171
  ret void
}

; Function Attrs: mustprogress nounwind uwtable
define linkonce_odr hidden void @_ZN2cv5gimpl18FluidUpscaleMapperC2Edii(ptr noundef nonnull align 8 dereferenceable(24) %0, double noundef %1, i32 noundef %2, i32 noundef %3) unnamed_addr #7 comdat align 2 {
  %5 = alloca ptr, align 8
  %6 = alloca double, align 8
  %7 = alloca i32, align 4
  %8 = alloca i32, align 4
  store ptr %0, ptr %5, align 8, !tbaa !172
  store double %1, ptr %6, align 8, !tbaa !170
  store i32 %2, ptr %7, align 4, !tbaa !146
  store i32 %3, ptr %8, align 4, !tbaa !146
  %9 = load ptr, ptr %5, align 8
  %10 = load double, ptr %6, align 8, !tbaa !170
  %11 = load i32, ptr %7, align 4, !tbaa !146
  call void @_ZN2cv5gimpl11FluidMapperC2Edi(ptr noundef nonnull align 8 dereferenceable(20) %9, double noundef %10, i32 noundef %11)
  store ptr getelementptr inbounds inrange(-16, 32) ({ [6 x ptr] }, ptr @_ZTVN2cv5gimpl18FluidUpscaleMapperE, i32 0, i32 0, i32 2), ptr %9, align 8, !tbaa !25
  %12 = getelementptr inbounds nuw %"struct.cv::gimpl::FluidUpscaleMapper", ptr %9, i32 0, i32 1
  %13 = load i32, ptr %8, align 4, !tbaa !146
  store i32 %13, ptr %12, align 4, !tbaa !174
  ret void
}

; Function Attrs: inlinehint mustprogress nounwind uwtable
define linkonce_odr hidden noundef nonnull align 8 dereferenceable(48) ptr @_ZNK2cv4gapi5fluid4View4metaEv(ptr noundef nonnull align 8 dereferenceable(16) %0) #8 comdat align 2 {
  %2 = alloca ptr, align 8
  store ptr %0, ptr %2, align 8, !tbaa !144
  %3 = load ptr, ptr %2, align 8
  %4 = getelementptr inbounds nuw %"class.cv::gapi::fluid::View", ptr %3, i32 0, i32 1
  %5 = load ptr, ptr %4, align 8, !tbaa !217
  %6 = getelementptr inbounds nuw %"struct.cv::gapi::fluid::View::Cache", ptr %5, i32 0, i32 1
  ret ptr %6
}

; Function Attrs: mustprogress nounwind uwtable
define linkonce_odr hidden noundef nonnull align 8 dereferenceable(16) ptr @_ZNSt6vectorIN2cv4gapi5fluid4ViewESaIS3_EEixEm(ptr noundef nonnull align 8 dereferenceable(24) %0, i64 noundef %1) #7 comdat align 2 {
  %3 = alloca ptr, align 8
  %4 = alloca i64, align 8
  store ptr %0, ptr %3, align 8, !tbaa !104
  store i64 %1, ptr %4, align 8, !tbaa !145
  %5 = load ptr, ptr %3, align 8
  %6 = getelementptr inbounds nuw %"struct.std::_Vector_base.22", ptr %5, i32 0, i32 0
  %7 = getelementptr inbounds nuw %"struct.std::_Vector_base<cv::gapi::fluid::View, std::allocator<cv::gapi::fluid::View>>::_Vector_impl_data", ptr %6, i32 0, i32 0
  %8 = load ptr, ptr %7, align 8, !tbaa !136
  %9 = load i64, ptr %4, align 8, !tbaa !145
  %10 = getelementptr inbounds nuw %"class.cv::gapi::fluid::View", ptr %8, i64 %9
  ret ptr %10
}

; Function Attrs: mustprogress nounwind uwtable
define linkonce_odr hidden void @_ZNSt10unique_ptrIN2cv5gimpl11FluidMapperESt14default_deleteIS2_EE5resetEPS2_(ptr noundef nonnull align 8 dereferenceable(8) %0, ptr noundef %1) #7 comdat align 2 {
  %3 = alloca ptr, align 8
  %4 = alloca ptr, align 8
  store ptr %0, ptr %3, align 8, !tbaa !210
  store ptr %1, ptr %4, align 8, !tbaa !215
  %5 = load ptr, ptr %3, align 8
  %6 = getelementptr inbounds nuw %"class.std::unique_ptr.139", ptr %5, i32 0, i32 0
  %7 = load ptr, ptr %4, align 8, !tbaa !215
  call void @_ZNSt15__uniq_ptr_implIN2cv5gimpl11FluidMapperESt14default_deleteIS2_EE5resetEPS2_(ptr noundef nonnull align 8 dereferenceable(8) %6, ptr noundef %7) #3
  ret void
}

; Function Attrs: inlinehint mustprogress uwtable
define linkonce_odr hidden void @_ZN2cv5gimpl20FluidDownscaleMapperCI2NS0_11FluidMapperEEdi(ptr noundef nonnull align 8 dereferenceable(20) %0, double noundef %1, i32 noundef %2) unnamed_addr #6 comdat align 2 {
  %4 = alloca ptr, align 8
  %5 = alloca double, align 8
  %6 = alloca i32, align 4
  store ptr %0, ptr %4, align 8, !tbaa !165
  store double %1, ptr %5, align 8, !tbaa !170
  store i32 %2, ptr %6, align 4, !tbaa !146
  %7 = load ptr, ptr %4, align 8
  %8 = load double, ptr %5, align 8, !tbaa !170
  %9 = load i32, ptr %6, align 4, !tbaa !146
  call void @_ZN2cv5gimpl11FluidMapperC2Edi(ptr noundef nonnull align 8 dereferenceable(20) %7, double noundef %8, i32 noundef %9)
  store ptr getelementptr inbounds inrange(-16, 32) ({ [6 x ptr] }, ptr @_ZTVN2cv5gimpl20FluidDownscaleMapperE, i32 0, i32 0, i32 2), ptr %7, align 8, !tbaa !25
  ret void
}

; Function Attrs: mustprogress uwtable
define hidden void @_ZN2cv5gimpl16FluidResizeAgent8setRatioEd(ptr noundef nonnull align 8 dereferenceable(368) %0, double noundef %1) unnamed_addr #4 align 2 personality ptr @__gxx_personality_v0 {
  %3 = alloca ptr, align 8
  %4 = alloca double, align 8
  %5 = alloca ptr, align 8
  %6 = alloca i32, align 4
  store ptr %0, ptr %3, align 8, !tbaa !181
  store double %1, ptr %4, align 8, !tbaa !170
  %7 = load ptr, ptr %3, align 8
  %8 = load double, ptr %4, align 8, !tbaa !170
  %9 = fcmp oge double %8, 1.000000e+00
  br i1 %9, label %10, label %22

10:                                               ; preds = %2
  %11 = getelementptr inbounds nuw %"struct.cv::gimpl::FluidResizeAgent", ptr %7, i32 0, i32 1
  %12 = call noalias noundef nonnull ptr @_Znwm(i64 noundef 24) #27
  %13 = load double, ptr %4, align 8, !tbaa !170
  %14 = getelementptr inbounds nuw %"struct.cv::gimpl::FluidAgent", ptr %7, i32 0, i32 1
  %15 = getelementptr inbounds nuw %"class.cv::GFluidKernel", ptr %14, i32 0, i32 1
  %16 = load i32, ptr %15, align 4, !tbaa !180
  invoke void @_ZN2cv5gimpl20FluidDownscaleMapperCI2NS0_11FluidMapperEEdi(ptr noundef nonnull align 8 dereferenceable(20) %12, double noundef %13, i32 noundef %16)
          to label %17 unwind label %18

17:                                               ; preds = %10
  call void @_ZNSt10unique_ptrIN2cv5gimpl11FluidMapperESt14default_deleteIS2_EE5resetEPS2_(ptr noundef nonnull align 8 dereferenceable(8) %11, ptr noundef %12) #3
  br label %41

18:                                               ; preds = %10
  %19 = landingpad { ptr, i32 }
          cleanup
  %20 = extractvalue { ptr, i32 } %19, 0
  store ptr %20, ptr %5, align 8
  %21 = extractvalue { ptr, i32 } %19, 1
  store i32 %21, ptr %6, align 4
  call void @_ZdlPv(ptr noundef %12) #28
  br label %42

22:                                               ; preds = %2
  %23 = getelementptr inbounds nuw %"struct.cv::gimpl::FluidResizeAgent", ptr %7, i32 0, i32 1
  %24 = call noalias noundef nonnull ptr @_Znwm(i64 noundef 24) #27
  %25 = load double, ptr %4, align 8, !tbaa !170
  %26 = getelementptr inbounds nuw %"struct.cv::gimpl::FluidAgent", ptr %7, i32 0, i32 1
  %27 = getelementptr inbounds nuw %"class.cv::GFluidKernel", ptr %26, i32 0, i32 1
  %28 = load i32, ptr %27, align 4, !tbaa !180
  %29 = getelementptr inbounds nuw %"struct.cv::gimpl::FluidAgent", ptr %7, i32 0, i32 7
  %30 = call noundef nonnull align 8 dereferenceable(16) ptr @_ZNSt6vectorIN2cv4gapi5fluid4ViewESaIS3_EEixEm(ptr noundef nonnull align 8 dereferenceable(24) %29, i64 noundef 0) #3
  %31 = invoke noundef nonnull align 8 dereferenceable(48) ptr @_ZNK2cv4gapi5fluid4View4metaEv(ptr noundef nonnull align 8 dereferenceable(16) %30)
          to label %32 unwind label %37

32:                                               ; preds = %22
  %33 = getelementptr inbounds nuw %"struct.cv::GMatDesc", ptr %31, i32 0, i32 2
  %34 = getelementptr inbounds nuw %"class.cv::Size_", ptr %33, i32 0, i32 1
  %35 = load i32, ptr %34, align 4, !tbaa !214
  invoke void @_ZN2cv5gimpl18FluidUpscaleMapperC2Edii(ptr noundef nonnull align 8 dereferenceable(24) %24, double noundef %25, i32 noundef %28, i32 noundef %35)
          to label %36 unwind label %37

36:                                               ; preds = %32
  call void @_ZNSt10unique_ptrIN2cv5gimpl11FluidMapperESt14default_deleteIS2_EE5resetEPS2_(ptr noundef nonnull align 8 dereferenceable(8) %23, ptr noundef %24) #3
  br label %41

37:                                               ; preds = %32, %22
  %38 = landingpad { ptr, i32 }
          cleanup
  %39 = extractvalue { ptr, i32 } %38, 0
  store ptr %39, ptr %5, align 8
  %40 = extractvalue { ptr, i32 } %38, 1
  store i32 %40, ptr %6, align 4
  call void @_ZdlPv(ptr noundef %24) #28
  br label %42

41:                                               ; preds = %36, %17
  ret void

42:                                               ; preds = %37, %18
  %43 = load ptr, ptr %5, align 8
  %44 = load i32, ptr %6, align 4
  %45 = insertvalue { ptr, i32 } poison, ptr %43, 0
  %46 = insertvalue { ptr, i32 } %45, i32 %44, 1
  resume { ptr, i32 } %46
}