; Function Attrs: mustprogress uwtable
define hidden void @_ZN2cv5gimpl16FluidResizeAgent8setRatioEd(ptr noundef nonnull align 8 captures(none) dereferenceable(368) %0, double noundef %1) unnamed_addr #3 align 2 personality ptr @__gxx_personality_v0 {
  %3 = fcmp ult double %1, 1.000000e+00
  br i1 %3, label %12, label %4

4:                                                ; preds = %2
  %5 = tail call noalias noundef nonnull dereferenceable(24) ptr @_Znwm(i64 noundef 24) #33
  %6 = getelementptr inbounds nuw i8, ptr %0, i64 12
  %7 = load i32, ptr %6, align 4, !tbaa !189
  %8 = getelementptr inbounds nuw i8, ptr %5, i64 8
  store double %1, ptr %8, align 8, !tbaa !180
  %9 = getelementptr inbounds nuw i8, ptr %5, i64 16
  store i32 %7, ptr %9, align 8, !tbaa !183
  store ptr getelementptr inbounds nuw inrange(-16, 32) (i8, ptr @_ZTVN2cv5gimpl20FluidDownscaleMapperE, i64 16), ptr %5, align 8, !tbaa !13
  %10 = getelementptr inbounds nuw i8, ptr %0, i64 360
  %11 = load ptr, ptr %10, align 8, !tbaa !215
  store ptr %5, ptr %10, align 8, !tbaa !215
  %.not.i.i = icmp eq ptr %11, null
  br i1 %.not.i.i, label %_ZNSt10unique_ptrIN2cv5gimpl11FluidMapperESt14default_deleteIS2_EE5resetEPS2_.exit, label %_ZNSt10unique_ptrIN2cv5gimpl11FluidMapperESt14default_deleteIS2_EE5resetEPS2_.exit.sink.split

12:                                               ; preds = %2
  %13 = getelementptr inbounds nuw i8, ptr %0, i64 360
  %14 = tail call noalias noundef nonnull dereferenceable(24) ptr @_Znwm(i64 noundef 24) #33
  %15 = getelementptr inbounds nuw i8, ptr %0, i64 12
  %16 = load i32, ptr %15, align 4, !tbaa !189
  %17 = getelementptr inbounds nuw i8, ptr %0, i64 304
  %18 = load ptr, ptr %17, align 8, !tbaa !142
  %19 = getelementptr inbounds nuw i8, ptr %18, i64 8
  %20 = load ptr, ptr %19, align 8, !tbaa !217
  %21 = getelementptr inbounds nuw i8, ptr %20, i64 36
  %22 = load i32, ptr %21, align 4, !tbaa !226
  %23 = getelementptr inbounds nuw i8, ptr %14, i64 8
  store double %1, ptr %23, align 8, !tbaa !180
  %24 = getelementptr inbounds nuw i8, ptr %14, i64 16
  store i32 %16, ptr %24, align 8, !tbaa !183
  store ptr getelementptr inbounds nuw inrange(-16, 32) (i8, ptr @_ZTVN2cv5gimpl18FluidUpscaleMapperE, i64 16), ptr %14, align 8, !tbaa !13
  %25 = getelementptr inbounds nuw i8, ptr %14, i64 20
  store i32 %22, ptr %25, align 4, !tbaa !184
  %26 = load ptr, ptr %13, align 8, !tbaa !215
  store ptr %14, ptr %13, align 8, !tbaa !215
  %.not.i.i5 = icmp eq ptr %26, null
  br i1 %.not.i.i5, label %_ZNSt10unique_ptrIN2cv5gimpl11FluidMapperESt14default_deleteIS2_EE5resetEPS2_.exit, label %_ZNSt10unique_ptrIN2cv5gimpl11FluidMapperESt14default_deleteIS2_EE5resetEPS2_.exit.sink.split

_ZNSt10unique_ptrIN2cv5gimpl11FluidMapperESt14default_deleteIS2_EE5resetEPS2_.exit.sink.split: ; preds = %12, %4
  %.sink11 = phi ptr [ %11, %4 ], [ %26, %12 ]
  %27 = load ptr, ptr %.sink11, align 8, !tbaa !13
  %28 = getelementptr inbounds nuw i8, ptr %27, i64 8
  %29 = load ptr, ptr %28, align 8
  tail call void %29(ptr noundef nonnull align 8 dereferenceable(20) %.sink11) #32
  br label %_ZNSt10unique_ptrIN2cv5gimpl11FluidMapperESt14default_deleteIS2_EE5resetEPS2_.exit

_ZNSt10unique_ptrIN2cv5gimpl11FluidMapperESt14default_deleteIS2_EE5resetEPS2_.exit: ; preds = %_ZNSt10unique_ptrIN2cv5gimpl11FluidMapperESt14default_deleteIS2_EE5resetEPS2_.exit.sink.split, %12, %4
  ret void
}